; ModuleID = 'source-C-CXX/32/1414.c'
source_filename = "source-C-CXX/32/1414.c"
target datalayout = "e-m:e-p270:32:32-p271:32:32-p272:64:64-i64:64-f80:128-n8:16:32:64-S128"
target triple = "x86_64-pc-linux-gnu"

@.str = private unnamed_addr constant [3 x i8] c"%d\00", align 1
@.str.1 = private unnamed_addr constant [3 x i8] c"%c\00", align 1

; Function Attrs: nofree nounwind sspstrong uwtable
define dso_local i32 @main() local_unnamed_addr #0 {
  %1 = alloca i32, align 4
  %2 = alloca i8, align 1
  %3 = bitcast i32* %1 to i8*
  call void @llvm.lifetime.start.p0i8(i64 4, i8* nonnull %3) #4
  %4 = call i32 (i8*, ...) @__isoc99_scanf(i8* getelementptr inbounds ([3 x i8], [3 x i8]* @.str, i64 0, i64 0), i32* nonnull %1)
  call void @llvm.lifetime.start.p0i8(i64 1, i8* nonnull %2) #4
  %5 = call i32 (i8*, ...) @__isoc99_scanf(i8* getelementptr inbounds ([3 x i8], [3 x i8]* @.str.1, i64 0, i64 0), i8* nonnull %2)
  %6 = load i32, i32* %1, align 4, !tbaa !5
  %7 = icmp slt i32 %6, 1
  br i1 %7, label %27, label %8

8:                                                ; preds = %0, %23
  %9 = phi i32 [ %24, %23 ], [ 1, %0 ]
  br label %10

10:                                               ; preds = %8, %18
  %11 = phi i32 [ 0, %8 ], [ %21, %18 ]
  %12 = call i32 (i8*, ...) @__isoc99_scanf(i8* getelementptr inbounds ([3 x i8], [3 x i8]* @.str.1, i64 0, i64 0), i8* nonnull %2)
  %13 = load i8, i8* %2, align 1, !tbaa !9
  switch i8 %13, label %17 [
    i8 65, label %18
    i8 84, label %14
    i8 71, label %15
    i8 67, label %16
  ]

14:                                               ; preds = %10
  br label %18

15:                                               ; preds = %10
  br label %18

16:                                               ; preds = %10
  br label %18

17:                                               ; preds = %10
  br label %18

18:                                               ; preds = %10, %15, %17, %16, %14
  %19 = phi i32 [ 67, %15 ], [ 10, %17 ], [ 71, %16 ], [ 65, %14 ], [ 84, %10 ]
  %20 = call i32 @putchar(i32 %19)
  %21 = add nuw nsw i32 %11, 1
  %22 = icmp eq i32 %21, 255
  br i1 %22, label %23, label %10, !llvm.loop !10

23:                                               ; preds = %18
  %24 = add nuw nsw i32 %9, 1
  %25 = load i32, i32* %1, align 4, !tbaa !5
  %26 = icmp slt i32 %9, %25
  br i1 %26, label %8, label %27, !llvm.loop !12

27:                                               ; preds = %23, %0
  call void @llvm.lifetime.end.p0i8(i64 1, i8* nonnull %2) #4
  call void @llvm.lifetime.end.p0i8(i64 4, i8* nonnull %3) #4
  ret i32 0
}

; Function Attrs: argmemonly mustprogress nofree nosync nounwind willreturn
declare void @llvm.lifetime.start.p0i8(i64 immarg, i8* nocapture) #1

; Function Attrs: nofree nounwind
declare noundef i32 @__isoc99_scanf(i8* nocapture noundef readonly, ...) local_unnamed_addr #2

; Function Attrs: argmemonly mustprogress nofree nosync nounwind willreturn
declare void @llvm.lifetime.end.p0i8(i64 immarg, i8* nocapture) #1

; Function Attrs: nofree nounwind
declare noundef i32 @putchar(i32 noundef) local_unnamed_addr #3


!llvm.module.flags = !{!0, !1, !2, !3}
!llvm.ident = !{!4}

!0 = !{i32 1, !"wchar_size", i32 4}
!1 = !{i32 7, !"PIC Level", i32 2}
!2 = !{i32 7, !"PIE Level", i32 2}
!3 = !{i32 7, !"uwtable", i32 1}
!4 = !{!"clang version 13.0.0"}
!5 = !{!6, !6, i64 0}
!6 = !{!"int", !7, i64 0}
!7 = !{!"omnipotent char", !8, i64 0}
!8 = !{!"Simple C/C++ TBAA"}
!9 = !{!7, !7, i64 0}
!10 = distinct !{!10, !11}
!11 = !{!"llvm.loop.mustprogress"}
!12 = distinct !{!12, !11}
